target datalayout = "e-m:e-p270:32:32-p271:32:32-p272:64:64-i64:64-i128:128-f80:128-n8:16:32:64-S128"
target triple = "x86_64-pc-linux-gnu"

%"class.icu_77::InputText" = type <{ ptr, i32, [4 x i8], ptr, i8, [7 x i8], ptr, ptr, i32, [4 x i8] }>

; Function Attrs: mustprogress uwtable
define noundef signext i8 @_ZNK6icu_7719CharsetRecog_UTF_325matchEPNS_9InputTextEPNS_12CharsetMatchE(ptr noundef nonnull align 8 dereferenceable(8) %0, ptr noundef %1, ptr noundef %2) unnamed_addr #3 align 2 {
  %4 = alloca ptr, align 8
  %5 = alloca ptr, align 8
  %6 = alloca ptr, align 8
  %7 = alloca ptr, align 8
  %8 = alloca i32, align 4
  %9 = alloca i32, align 4
  %10 = alloca i32, align 4
  %11 = alloca i8, align 1
  %12 = alloca i32, align 4
  %13 = alloca i32, align 4
  %14 = alloca i32, align 4
  store ptr %0, ptr %4, align 8, !tbaa !30
  store ptr %1, ptr %5, align 8, !tbaa !10
  store ptr %2, ptr %6, align 8, !tbaa !12
  %15 = load ptr, ptr %4, align 8
  call void @llvm.lifetime.start.p0(i64 8, ptr %7) #6
  %16 = load ptr, ptr %5, align 8, !tbaa !10
  %17 = getelementptr inbounds nuw %"class.icu_77::InputText", ptr %16, i32 0, i32 7
  %18 = load ptr, ptr %17, align 8, !tbaa !14
  store ptr %18, ptr %7, align 8, !tbaa !19
  call void @llvm.lifetime.start.p0(i64 4, ptr %8) #6
  %19 = load ptr, ptr %5, align 8, !tbaa !10
  %20 = getelementptr inbounds nuw %"class.icu_77::InputText", ptr %19, i32 0, i32 8
  %21 = load i32, ptr %20, align 8, !tbaa !21
  %22 = sdiv i32 %21, 4
  %23 = mul nsw i32 %22, 4
  store i32 %23, ptr %8, align 4, !tbaa !20
  call void @llvm.lifetime.start.p0(i64 4, ptr %9) #6
  store i32 0, ptr %9, align 4, !tbaa !20
  call void @llvm.lifetime.start.p0(i64 4, ptr %10) #6
  store i32 0, ptr %10, align 4, !tbaa !20
  call void @llvm.lifetime.start.p0(i64 1, ptr %11) #6
  store i8 0, ptr %11, align 1, !tbaa !32
  call void @llvm.lifetime.start.p0(i64 4, ptr %12) #6
  store i32 0, ptr %12, align 4, !tbaa !20
  %24 = load i32, ptr %8, align 4, !tbaa !20
  %25 = icmp sgt i32 %24, 0
  br i1 %25, label %26, label %35

26:                                               ; preds = %3
  %27 = load ptr, ptr %7, align 8, !tbaa !19
  %28 = load ptr, ptr %15, align 8, !tbaa !34
  %29 = getelementptr inbounds ptr, ptr %28, i64 5
  %30 = load ptr, ptr %29, align 8
  %31 = call noundef i32 %30(ptr noundef nonnull align 8 dereferenceable(8) %15, ptr noundef %27, i32 noundef 0)
  %32 = sext i32 %31 to i64
  %33 = icmp eq i64 %32, 65279
  br i1 %33, label %34, label %35

34:                                               ; preds = %26
  store i8 1, ptr %11, align 1, !tbaa !32
  br label %35

35:                                               ; preds = %34, %26, %3
  call void @llvm.lifetime.start.p0(i64 4, ptr %13) #6
  store i32 0, ptr %13, align 4, !tbaa !20
  br label %36

36:                                               ; preds = %66, %35
  %37 = load i32, ptr %13, align 4, !tbaa !20
  %38 = load i32, ptr %8, align 4, !tbaa !20
  %39 = icmp slt i32 %37, %38
  br i1 %39, label %41, label %40

40:                                               ; preds = %36
  call void @llvm.lifetime.end.p0(i64 4, ptr %13) #6
  br label %69

41:                                               ; preds = %36
  call void @llvm.lifetime.start.p0(i64 4, ptr %14) #6
  %42 = load ptr, ptr %7, align 8, !tbaa !19
  %43 = load i32, ptr %13, align 4, !tbaa !20
  %44 = load ptr, ptr %15, align 8, !tbaa !34
  %45 = getelementptr inbounds ptr, ptr %44, i64 5
  %46 = load ptr, ptr %45, align 8
  %47 = call noundef i32 %46(ptr noundef nonnull align 8 dereferenceable(8) %15, ptr noundef %42, i32 noundef %43)
  store i32 %47, ptr %14, align 4, !tbaa !20
  %48 = load i32, ptr %14, align 4, !tbaa !20
  %49 = icmp slt i32 %48, 0
  br i1 %49, label %59, label %50

50:                                               ; preds = %41
  %51 = load i32, ptr %14, align 4, !tbaa !20
  %52 = icmp sge i32 %51, 1114111
  br i1 %52, label %59, label %53

53:                                               ; preds = %50
  %54 = load i32, ptr %14, align 4, !tbaa !20
  %55 = icmp sge i32 %54, 55296
  br i1 %55, label %56, label %62

56:                                               ; preds = %53
  %57 = load i32, ptr %14, align 4, !tbaa !20
  %58 = icmp sle i32 %57, 57343
  br i1 %58, label %59, label %62

59:                                               ; preds = %56, %50, %41
  %60 = load i32, ptr %10, align 4, !tbaa !20
  %61 = add nsw i32 %60, 1
  store i32 %61, ptr %10, align 4, !tbaa !20
  br label %65

62:                                               ; preds = %56, %53
  %63 = load i32, ptr %9, align 4, !tbaa !20
  %64 = add nsw i32 %63, 1
  store i32 %64, ptr %9, align 4, !tbaa !20
  br label %65

65:                                               ; preds = %62, %59
  call void @llvm.lifetime.end.p0(i64 4, ptr %14) #6
  br label %66

66:                                               ; preds = %65
  %67 = load i32, ptr %13, align 4, !tbaa !20
  %68 = add nsw i32 %67, 4
  store i32 %68, ptr %13, align 4, !tbaa !20
  br label %36, !llvm.loop !36

69:                                               ; preds = %40
  %70 = load i8, ptr %11, align 1, !tbaa !32, !range !37, !noundef !38
  %71 = trunc i8 %70 to i1
  br i1 %71, label %72, label %76

72:                                               ; preds = %69
  %73 = load i32, ptr %10, align 4, !tbaa !20
  %74 = icmp eq i32 %73, 0
  br i1 %74, label %75, label %76

75:                                               ; preds = %72
  store i32 100, ptr %12, align 4, !tbaa !20
  br label %109

76:                                               ; preds = %72, %69
  %77 = load i8, ptr %11, align 1, !tbaa !32, !range !37, !noundef !38
  %78 = trunc i8 %77 to i1
  br i1 %78, label %79, label %85

79:                                               ; preds = %76
  %80 = load i32, ptr %9, align 4, !tbaa !20
  %81 = load i32, ptr %10, align 4, !tbaa !20
  %82 = mul nsw i32 %81, 10
  %83 = icmp sgt i32 %80, %82
  br i1 %83, label %84, label %85

84:                                               ; preds = %79
  store i32 80, ptr %12, align 4, !tbaa !20
  br label %108

85:                                               ; preds = %79, %76
  %86 = load i32, ptr %9, align 4, !tbaa !20
  %87 = icmp sgt i32 %86, 3
  br i1 %87, label %88, label %92

88:                                               ; preds = %85
  %89 = load i32, ptr %10, align 4, !tbaa !20
  %90 = icmp eq i32 %89, 0
  br i1 %90, label %91, label %92

91:                                               ; preds = %88
  store i32 100, ptr %12, align 4, !tbaa !20
  br label %107

92:                                               ; preds = %88, %85
  %93 = load i32, ptr %9, align 4, !tbaa !20
  %94 = icmp sgt i32 %93, 0
  br i1 %94, label %95, label %99

95:                                               ; preds = %92
  %96 = load i32, ptr %10, align 4, !tbaa !20
  %97 = icmp eq i32 %96, 0
  br i1 %97, label %98, label %99

98:                                               ; preds = %95
  store i32 80, ptr %12, align 4, !tbaa !20
  br label %106

99:                                               ; preds = %95, %92
  %100 = load i32, ptr %9, align 4, !tbaa !20
  %101 = load i32, ptr %10, align 4, !tbaa !20
  %102 = mul nsw i32 %101, 10
  %103 = icmp sgt i32 %100, %102
  br i1 %103, label %104, label %105

104:                                              ; preds = %99
  store i32 25, ptr %12, align 4, !tbaa !20
  br label %105

105:                                              ; preds = %104, %99
  br label %106

106:                                              ; preds = %105, %98
  br label %107

107:                                              ; preds = %106, %91
  br label %108

108:                                              ; preds = %107, %84
  br label %109

109:                                              ; preds = %108, %75
  %110 = load ptr, ptr %6, align 8, !tbaa !12
  %111 = load ptr, ptr %5, align 8, !tbaa !10
  %112 = load i32, ptr %12, align 4, !tbaa !20
  call void @_ZN6icu_7712CharsetMatch3setEPNS_9InputTextEPKNS_17CharsetRecognizerEiPKcS7_(ptr noundef nonnull align 8 dereferenceable(32) %110, ptr noundef %111, ptr noundef %15, i32 noundef %112, ptr noundef null, ptr noundef null)
  %113 = load i32, ptr %12, align 4, !tbaa !20
  %114 = icmp sgt i32 %113, 0
  %115 = zext i1 %114 to i8
  call void @llvm.lifetime.end.p0(i64 4, ptr %12) #6
  call void @llvm.lifetime.end.p0(i64 1, ptr %11) #6
  call void @llvm.lifetime.end.p0(i64 4, ptr %10) #6
  call void @llvm.lifetime.end.p0(i64 4, ptr %9) #6
  call void @llvm.lifetime.end.p0(i64 4, ptr %8) #6
  call void @llvm.lifetime.end.p0(i64 8, ptr %7) #6
  ret i8 %115
}