; Function Attrs: mustprogress uwtable
define noundef signext range(i8 0, 2) i8 @_ZNK6icu_7719CharsetRecog_UTF_325matchEPNS_9InputTextEPNS_12CharsetMatchE(ptr noundef nonnull align 8 dereferenceable(8) %0, ptr noundef %1, ptr noundef %2) unnamed_addr #5 align 2 {
  %4 = getelementptr inbounds nuw i8, ptr %1, i64 40
  %5 = load ptr, ptr %4, align 8, !tbaa !3
  %6 = getelementptr inbounds nuw i8, ptr %1, i64 48
  %7 = load i32, ptr %6, align 8, !tbaa !11
  %8 = sdiv i32 %7, 4
  %9 = shl nsw i32 %8, 2
  %10 = icmp sgt i32 %7, 3
  br i1 %10, label %.lr.ph.preheader, label %.thread77

.lr.ph.preheader:                                 ; preds = %3
  %11 = load ptr, ptr %0, align 8, !tbaa !16
  %12 = getelementptr inbounds nuw i8, ptr %11, i64 40
  %13 = load ptr, ptr %12, align 8
  %14 = tail call noundef i32 %13(ptr noundef nonnull align 8 dereferenceable(8) %0, ptr noundef %5, i32 noundef 0)
  %15 = icmp eq i32 %14, 65279
  br label %.lr.ph

._crit_edge:                                      ; preds = %.lr.ph
  %16 = icmp eq i32 %.143, 0
  %or.cond5 = select i1 %15, i1 %16, i1 false
  br i1 %or.cond5, label %.thread77, label %26

.lr.ph:                                           ; preds = %.lr.ph.preheader, %.lr.ph
  %.052 = phi i32 [ %.1, %.lr.ph ], [ 0, %.lr.ph.preheader ]
  %.03951 = phi i32 [ %24, %.lr.ph ], [ 0, %.lr.ph.preheader ]
  %.04250 = phi i32 [ %.143, %.lr.ph ], [ 0, %.lr.ph.preheader ]
  %17 = load ptr, ptr %0, align 8, !tbaa !16
  %18 = getelementptr inbounds nuw i8, ptr %17, i64 40
  %19 = load ptr, ptr %18, align 8
  %20 = tail call noundef i32 %19(ptr noundef nonnull align 8 dereferenceable(8) %0, ptr noundef %5, i32 noundef %.03951)
  %or.cond = icmp ugt i32 %20, 1114110
  %21 = and i32 %20, 2095104
  %or.cond3 = icmp eq i32 %21, 55296
  %or.cond45 = or i1 %or.cond, %or.cond3
  %22 = zext i1 %or.cond45 to i32
  %.143 = add nuw nsw i32 %.04250, %22
  %not.or.cond45 = xor i1 %or.cond45, true
  %23 = zext i1 %not.or.cond45 to i32
  %.1 = add nuw nsw i32 %.052, %23
  %24 = add nuw nsw i32 %.03951, 4
  %25 = icmp slt i32 %24, %9
  br i1 %25, label %.lr.ph, label %._crit_edge, !llvm.loop !18

26:                                               ; preds = %._crit_edge
  %27 = mul nuw nsw i32 %.143, 10
  %28 = icmp samesign ugt i32 %.1, %27
  %cond.fr = freeze i1 %28
  %or.cond47 = and i1 %15, %cond.fr
  br i1 %or.cond47, label %.thread77, label %29

29:                                               ; preds = %26
  %30 = icmp samesign ugt i32 %.1, 3
  %or.cond7 = select i1 %30, i1 %16, i1 false
  br i1 %or.cond7, label %.thread77, label %31

31:                                               ; preds = %29
  %32 = icmp ne i32 %.1, 0
  %or.cond9 = select i1 %32, i1 %16, i1 false
  br i1 %or.cond9, label %.thread77, label %33

33:                                               ; preds = %31
  %spec.select48 = zext i1 %cond.fr to i8
  %spec.select = select i1 %cond.fr, i32 25, i32 0
  br label %.thread77

.thread77:                                        ; preds = %33, %3, %31, %29, %26, %._crit_edge
  %34 = phi i8 [ 1, %._crit_edge ], [ 1, %26 ], [ 1, %29 ], [ 1, %31 ], [ 0, %3 ], [ %spec.select48, %33 ]
  %.040 = phi i32 [ 100, %._crit_edge ], [ 80, %26 ], [ 100, %29 ], [ 80, %31 ], [ 0, %3 ], [ %spec.select, %33 ]
  tail call void @_ZN6icu_7712CharsetMatch3setEPNS_9InputTextEPKNS_17CharsetRecognizerEiPKcS7_(ptr noundef nonnull align 8 dereferenceable(32) %2, ptr noundef nonnull %1, ptr noundef nonnull %0, i32 noundef %.040, ptr noundef null, ptr noundef null)
  ret i8 %34
}